target datalayout = "e-m:e-p270:32:32-p271:32:32-p272:64:64-i64:64-i128:128-f80:128-n8:16:32:64-S128"
target triple = "x86_64-pc-linux-gnu"

%struct.Curl_ssl = type { %struct.curl_ssl_backend, i32, i64, ptr, ptr, ptr, ptr, ptr, ptr, ptr, ptr, ptr, ptr, ptr, ptr, ptr, ptr, ptr, ptr, ptr, ptr, ptr, ptr, ptr, ptr, ptr, ptr, ptr }
%struct.curl_ssl_backend = type { i32, ptr }
%struct.Curl_easy = type { i32, i64, ptr, ptr, ptr, %struct.Curl_llist_element, %struct.Curl_llist_element, i32, i32, %struct.Curl_message, %struct.easy_pollset, %struct.Names, ptr, ptr, ptr, %struct.SingleRequest, %struct.UserDefined, ptr, ptr, %struct.Progress, %struct.UrlState, ptr, %struct.PureInfo, %struct.curl_tlssessioninfo }
%struct.Curl_llist_element = type { ptr, ptr, ptr }
%struct.Curl_message = type { %struct.Curl_llist_element, %struct.CURLMsg }
%struct.CURLMsg = type { i32, ptr, %union.anon }
%union.anon = type { ptr }
%struct.easy_pollset = type { [5 x i32], i32, [5 x i8] }
%struct.Names = type { ptr, i32 }
%struct.SingleRequest = type <{ i64, i64, i64, i64, i64, %struct.curltime, i32, i32, i32, i32, i64, i32, i32, %struct.curltime, i32, i32, ptr, i64, i64, ptr, ptr, i64, ptr, %union.anon.0, ptr, [2 x i8], i8, i16, [3 x i8] }>
%struct.curltime = type { i64, i32 }
%union.anon.0 = type { ptr }
%struct.UserDefined = type <{ ptr, ptr, ptr, ptr, ptr, ptr, i16, [6 x i8], i64, i64, i64, ptr, ptr, i64, i16, i16, [4 x i8], ptr, ptr, ptr, ptr, ptr, ptr, ptr, ptr, ptr, ptr, ptr, ptr, ptr, ptr, ptr, ptr, ptr, ptr, ptr, ptr, ptr, ptr, ptr, i32, i32, i32, i32, i64, i64, i64, i64, i64, i64, i64, i64, ptr, ptr, %struct.curl_mimepart, ptr, ptr, i64, i8, i8, i8, [5 x i8], %struct.ssl_config_data, %struct.ssl_config_data, ptr, i16, i8, i8, [4 x i8], %struct.ssl_general_config, i32, i32, i32, [4 x i8], ptr, ptr, i8, [7 x i8], i64, i8, i8, i8, i8, i32, ptr, ptr, ptr, i8, i8, [2 x i8], i32, [80 x ptr], [8 x ptr], i32, i32, i32, [4 x i8], ptr, ptr, ptr, ptr, ptr, i8, [3 x i8], i32, i32, [4 x i8], i64, %struct.Curl_data_priority, ptr, ptr, i64, ptr, ptr, ptr, ptr, ptr, i8, [3 x i8], i32, i8, i8, i56, [6 x i8] }>
%struct.curl_mimepart = type { ptr, ptr, i32, i32, ptr, ptr, ptr, ptr, ptr, ptr, ptr, ptr, ptr, ptr, ptr, i64, %struct.mime_state, ptr, %struct.mime_encoder_state, i64 }
%struct.mime_state = type { i32, ptr, i64 }
%struct.mime_encoder_state = type { i64, i64, i64, [256 x i8] }
%struct.ssl_config_data = type { %struct.ssl_primary_config, i64, ptr, ptr, ptr, ptr, ptr, ptr, ptr, i8 }
%struct.ssl_primary_config = type { ptr, ptr, ptr, ptr, ptr, ptr, ptr, ptr, ptr, ptr, ptr, ptr, i8, i32, i8, i8 }
%struct.ssl_general_config = type { i64, i32 }
%struct.Curl_data_priority = type { ptr, ptr, i32, i8 }
%struct.Progress = type { i64, i64, i64, i64, i64, i64, i32, i32, i64, i64, i64, i64, i64, i64, i64, i64, i64, i64, %struct.curltime, %struct.curltime, %struct.curltime, %struct.curltime, %struct.curltime, i64, %struct.curltime, i64, [6 x i64], [6 x %struct.curltime], i32, i8 }
%struct.UrlState = type { ptr, %struct.curltime, i64, i64, %struct.dynbuf, ptr, ptr, ptr, i64, ptr, i32, i32, i32, ptr, i64, [3 x %struct.tempbuf], i32, i32, ptr, i64, i32, ptr, %struct.digestdata, %struct.digestdata, %struct.auth, %struct.auth, %struct.Curl_async, ptr, %struct.curltime, %struct.Curl_tree, %struct.Curl_llist, [15 x %struct.time_node], ptr, i8, i64, ptr, i64, i64, %struct.Curl_data_priority, ptr, ptr, ptr, %struct.urlpieces, ptr, ptr, ptr, ptr, ptr, i64, %struct.dynbuf, %struct.Curl_llist, [2 x %struct.curl_header], ptr, i32, ptr, %struct.dynamically_allocated_data, i8, i8, i8, i8, i24 }
%struct.tempbuf = type { %struct.dynbuf, i32, i8 }
%struct.digestdata = type { ptr, ptr, ptr, ptr, ptr, ptr, i32, i8, i8 }
%struct.auth = type { i64, i64, i64, i8 }
%struct.Curl_async = type { ptr, ptr, ptr, ptr, i32, i32, i8 }
%struct.Curl_tree = type { ptr, ptr, ptr, ptr, %struct.curltime, ptr }
%struct.time_node = type { %struct.Curl_llist_element, %struct.curltime, i32 }
%struct.urlpieces = type { ptr, ptr, ptr, ptr, ptr, ptr, ptr, ptr }
%struct.dynbuf = type { ptr, i64, i64, i64 }
%struct.Curl_llist = type { ptr, ptr, ptr, i64 }
%struct.curl_header = type { ptr, ptr, i64, i64, i32, ptr }
%struct.dynamically_allocated_data = type { ptr, ptr, ptr, ptr, ptr, ptr, ptr, ptr, ptr, ptr, ptr, ptr, ptr, ptr }
%struct.PureInfo = type { i32, i32, i32, i64, i64, i64, i64, i64, ptr, ptr, i64, i32, [46 x i8], i32, i32, [46 x i8], i32, ptr, i32, %struct.curl_certinfo, i32, i8 }
%struct.curl_certinfo = type { i32, ptr }
%struct.curl_tlssessioninfo = type { i32, ptr }
%struct.connectdata = type { %struct.Curl_llist_element, ptr, ptr, i64, ptr, ptr, %struct.hostname, ptr, ptr, %struct.hostname, %struct.proxy_info, %struct.proxy_info, [46 x i8], ptr, ptr, ptr, ptr, ptr, %struct.curltime, %struct.curltime, %struct.curltime, [2 x i32], [2 x ptr], [2 x ptr], [2 x ptr], %struct.ssl_primary_config, %struct.ssl_primary_config, %struct.ConnectBits, ptr, ptr, %struct.curltime, i32, i32, %struct.Curl_llist, ptr, ptr, i32, i32, %struct.ntlmdata, %struct.ntlmdata, %union.anon.1, ptr, ptr, i16, i32, i32, i32, i32, i32, i16, i16, i8, i8, i8, i8, i8, i8, i8 }
%struct.hostname = type { ptr, ptr, ptr, ptr }
%struct.proxy_info = type { %struct.hostname, i32, i8, ptr, ptr }
%struct.ConnectBits = type { i32 }
%struct.ntlmdata = type { i32, [8 x i8], i32, ptr }
%union.anon.1 = type { %struct.ftp_conn }
%struct.ftp_conn = type { %struct.pingpong, ptr, ptr, ptr, ptr, ptr, ptr, ptr, i8, i64, ptr, i64, i32, i32, i32, i32, i32, i16, i8, i8, i8, i8, i8 }
%struct.pingpong = type { i64, i8, ptr, i64, i64, %struct.curltime, i64, %struct.dynbuf, %struct.dynbuf, i64, i64, ptr, ptr }
%struct.Curl_cfilter = type { ptr, ptr, ptr, ptr, i32, i8 }
%struct.ssl_connect_data = type { i32, i32, %struct.ssl_peer, ptr, ptr, %struct.cf_call_data, %struct.curltime, i32, i8 }
%struct.ssl_peer = type { ptr, ptr, ptr, i8 }
%struct.cf_call_data = type { ptr }

@Curl_ssl = dso_local global ptr @Curl_ssl_openssl, align 8

; Function Attrs: nounwind uwtable
define internal ptr @get_ssl_filter(ptr noundef %0) #0 {
  %2 = alloca ptr, align 8
  %3 = alloca ptr, align 8
  store ptr %0, ptr %3, align 8
  br label %4

4:                                                ; preds = %22, %1
  %5 = load ptr, ptr %3, align 8
  %6 = icmp ne ptr %5, null
  br i1 %6, label %7, label %26

7:                                                ; preds = %4
  %8 = load ptr, ptr %3, align 8
  %9 = getelementptr inbounds %struct.Curl_cfilter, ptr %8, i32 0, i32 0
  %10 = load ptr, ptr %9, align 8
  %11 = icmp eq ptr %10, @Curl_cft_ssl
  br i1 %11, label %12, label %14

12:                                               ; preds = %7
  %13 = load ptr, ptr %3, align 8
  store ptr %13, ptr %2, align 8
  br label %27

14:                                               ; preds = %7
  %15 = load ptr, ptr %3, align 8
  %16 = getelementptr inbounds %struct.Curl_cfilter, ptr %15, i32 0, i32 0
  %17 = load ptr, ptr %16, align 8
  %18 = icmp eq ptr %17, @Curl_cft_ssl_proxy
  br i1 %18, label %19, label %21

19:                                               ; preds = %14
  %20 = load ptr, ptr %3, align 8
  store ptr %20, ptr %2, align 8
  br label %27

21:                                               ; preds = %14
  br label %22

22:                                               ; preds = %21
  %23 = load ptr, ptr %3, align 8
  %24 = getelementptr inbounds %struct.Curl_cfilter, ptr %23, i32 0, i32 1
  %25 = load ptr, ptr %24, align 8
  store ptr %25, ptr %3, align 8
  br label %4, !llvm.loop !16

26:                                               ; preds = %4
  store ptr null, ptr %2, align 8
  br label %27

27:                                               ; preds = %26, %19, %12
  %28 = load ptr, ptr %2, align 8
  ret ptr %28
}

; Function Attrs: nounwind uwtable
define dso_local ptr @Curl_ssl_get_internals(ptr noundef %0, i32 noundef %1, i32 noundef %2, i32 noundef %3) #0 {
  %5 = alloca ptr, align 8
  %6 = alloca i32, align 4
  %7 = alloca i32, align 4
  %8 = alloca i32, align 4
  %9 = alloca ptr, align 8
  %10 = alloca ptr, align 8
  %11 = alloca %struct.cf_call_data, align 8
  store ptr %0, ptr %5, align 8
  store i32 %1, ptr %6, align 4
  store i32 %2, ptr %7, align 4
  store i32 %3, ptr %8, align 4
  store ptr null, ptr %9, align 8
  %12 = load ptr, ptr %5, align 8
  %13 = getelementptr inbounds %struct.Curl_easy, ptr %12, i32 0, i32 4
  %14 = load ptr, ptr %13, align 8
  %15 = icmp ne ptr %14, null
  br i1 %15, label %16, label %56

16:                                               ; preds = %4
  %17 = load ptr, ptr %5, align 8
  %18 = getelementptr inbounds %struct.Curl_easy, ptr %17, i32 0, i32 4
  %19 = load ptr, ptr %18, align 8
  %20 = getelementptr inbounds %struct.connectdata, ptr %19, i32 0, i32 24
  %21 = load i32, ptr %6, align 4
  %22 = sext i32 %21 to i64
  %23 = getelementptr inbounds [2 x ptr], ptr %20, i64 0, i64 %22
  %24 = load ptr, ptr %23, align 8
  %25 = call ptr @get_ssl_filter(ptr noundef %24)
  store ptr %25, ptr %10, align 8
  %26 = load ptr, ptr %10, align 8
  %27 = icmp ne ptr %26, null
  br i1 %27, label %28, label %55

28:                                               ; preds = %16
  br label %29

29:                                               ; preds = %28
  %30 = load ptr, ptr %10, align 8
  %31 = getelementptr inbounds %struct.Curl_cfilter, ptr %30, i32 0, i32 2
  %32 = load ptr, ptr %31, align 8
  %33 = getelementptr inbounds %struct.ssl_connect_data, ptr %32, i32 0, i32 5
  call void @llvm.memcpy.p0.p0.i64(ptr align 8 %11, ptr align 8 %33, i64 8, i1 false)
  %34 = load ptr, ptr %5, align 8
  %35 = load ptr, ptr %10, align 8
  %36 = getelementptr inbounds %struct.Curl_cfilter, ptr %35, i32 0, i32 2
  %37 = load ptr, ptr %36, align 8
  %38 = getelementptr inbounds %struct.ssl_connect_data, ptr %37, i32 0, i32 5
  %39 = getelementptr inbounds %struct.cf_call_data, ptr %38, i32 0, i32 0
  store ptr %34, ptr %39, align 8
  br label %40

40:                                               ; preds = %29
  %41 = load ptr, ptr @Curl_ssl, align 8
  %42 = getelementptr inbounds %struct.Curl_ssl, ptr %41, i32 0, i32 14
  %43 = load ptr, ptr %42, align 8
  %44 = load ptr, ptr %10, align 8
  %45 = getelementptr inbounds %struct.Curl_cfilter, ptr %44, i32 0, i32 2
  %46 = load ptr, ptr %45, align 8
  %47 = load i32, ptr %7, align 4
  %48 = call ptr %43(ptr noundef %46, i32 noundef %47)
  store ptr %48, ptr %9, align 8
  br label %49

49:                                               ; preds = %40
  %50 = load ptr, ptr %10, align 8
  %51 = getelementptr inbounds %struct.Curl_cfilter, ptr %50, i32 0, i32 2
  %52 = load ptr, ptr %51, align 8
  %53 = getelementptr inbounds %struct.ssl_connect_data, ptr %52, i32 0, i32 5
  call void @llvm.memcpy.p0.p0.i64(ptr align 8 %53, ptr align 8 %11, i64 8, i1 false)
  br label %54

54:                                               ; preds = %49
  br label %55

55:                                               ; preds = %54, %16
  br label %56

56:                                               ; preds = %55, %4
  %57 = load ptr, ptr %9, align 8
  ret ptr %57
}