; Function Attrs: nounwind uwtable
define dso_local ptr @Curl_ssl_get_internals(ptr noundef %0, i32 noundef %1, i32 noundef %2, i32 noundef %3) local_unnamed_addr #2 {
  %5 = getelementptr inbounds nuw i8, ptr %0, i64 32
  %6 = load ptr, ptr %5, align 8
  %.not = icmp eq ptr %6, null
  br i1 %.not, label %get_ssl_filter.exit.thread, label %7

7:                                                ; preds = %4
  %8 = getelementptr inbounds nuw i8, ptr %6, i64 432
  %9 = sext i32 %1 to i64
  %10 = getelementptr inbounds [2 x ptr], ptr %8, i64 0, i64 %9
  %11 = load ptr, ptr %10, align 8
  %.not9.i = icmp eq ptr %11, null
  br i1 %.not9.i, label %get_ssl_filter.exit.thread, label %.lr.ph.i

.lr.ph.i:                                         ; preds = %7, %15
  %.010.i = phi ptr [ %17, %15 ], [ %11, %7 ]
  %12 = load ptr, ptr %.010.i, align 8
  %13 = icmp eq ptr %12, @Curl_cft_ssl
  %14 = icmp eq ptr %12, @Curl_cft_ssl_proxy
  %or.cond.i = or i1 %13, %14
  br i1 %or.cond.i, label %get_ssl_filter.exit, label %15

15:                                               ; preds = %.lr.ph.i
  %16 = getelementptr inbounds nuw i8, ptr %.010.i, i64 8
  %17 = load ptr, ptr %16, align 8
  %.not.i = icmp eq ptr %17, null
  br i1 %.not.i, label %get_ssl_filter.exit.thread, label %.lr.ph.i, !llvm.loop !17

get_ssl_filter.exit:                              ; preds = %.lr.ph.i
  %18 = getelementptr inbounds nuw i8, ptr %.010.i, i64 16
  %19 = load ptr, ptr %18, align 8
  %20 = getelementptr inbounds nuw i8, ptr %19, i64 56
  %.sroa.0.0.copyload = load ptr, ptr %20, align 8
  store ptr %0, ptr %20, align 8
  %21 = load ptr, ptr @Curl_ssl, align 8
  %22 = getelementptr inbounds nuw i8, ptr %21, i64 120
  %23 = load ptr, ptr %22, align 8
  %24 = load ptr, ptr %18, align 8
  %25 = tail call ptr %23(ptr noundef %24, i32 noundef %2) #18
  %26 = load ptr, ptr %18, align 8
  %27 = getelementptr inbounds nuw i8, ptr %26, i64 56
  store ptr %.sroa.0.0.copyload, ptr %27, align 8
  br label %get_ssl_filter.exit.thread

get_ssl_filter.exit.thread:                       ; preds = %15, %7, %get_ssl_filter.exit, %4
  %.0 = phi ptr [ %25, %get_ssl_filter.exit ], [ null, %4 ], [ null, %7 ], [ null, %15 ]
  ret ptr %.0
}